; Function Attrs: mustprogress uwtable
define internal fastcc noundef ptr @_ZN6icu_77L18getCalendarServiceER10UErrorCode(ptr noundef nonnull align 4 dereferenceable(4) %0) unnamed_addr #1 personality ptr @__gxx_personality_v0 {
  %2 = load i32, ptr %0, align 4, !tbaa !13
  %3 = icmp slt i32 %2, 1
  br i1 %3, label %4, label %_ZN6icu_7713umtx_initOnceERNS_9UInitOnceEPFvR10UErrorCodeES3_.exit

4:                                                ; preds = %1
  %5 = load atomic i32, ptr @_ZL16gServiceInitOnce acquire, align 4
  %.not11.i = icmp eq i32 %5, 2
  br i1 %.not11.i, label %41, label %6

6:                                                ; preds = %4
  %7 = tail call noundef signext i8 @_ZN6icu_7720umtx_initImplPreInitERNS_9UInitOnceE(ptr noundef nonnull align 4 dereferenceable(8) @_ZL16gServiceInitOnce)
  %.not12.i = icmp eq i8 %7, 0
  br i1 %.not12.i, label %41, label %8

8:                                                ; preds = %6
  %9 = load i32, ptr %0, align 4, !tbaa !13
  %10 = icmp slt i32 %9, 1
  br i1 %10, label %11, label %_ZN6icu_77L19initCalendarServiceER10UErrorCode.exit

11:                                               ; preds = %8
  tail call void @ucln_i18n_registerCleanup_77(i32 noundef 14, ptr noundef nonnull @_ZL16calendar_cleanupv)
  %12 = tail call noundef ptr @_ZN6icu_777UMemorynwEm(i64 noundef 408) #25
  %13 = icmp eq ptr %12, null
  br i1 %13, label %15, label %14

14:                                               ; preds = %11
  invoke void @_ZN6icu_7715CalendarServiceC2Ev(ptr noundef nonnull align 8 dereferenceable(408) %12)
          to label %18 unwind label %16

15:                                               ; preds = %11
  store ptr null, ptr @_ZL8gService, align 8, !tbaa !36
  store i32 7, ptr %0, align 4, !tbaa !13
  br label %_ZN6icu_77L19initCalendarServiceER10UErrorCode.exit

16:                                               ; preds = %14
  %17 = landingpad { ptr, i32 }
          cleanup
  br label %39

18:                                               ; preds = %14
  store ptr %12, ptr @_ZL8gService, align 8, !tbaa !36
  %19 = tail call noundef ptr @_ZN6icu_777UMemorynwEm(i64 noundef 80) #25
  %20 = icmp eq ptr %19, null
  br i1 %20, label %22, label %21

21:                                               ; preds = %18
  invoke void @_ZN6icu_7716LocaleKeyFactoryC2Ei(ptr noundef nonnull align 8 dereferenceable(76) %19, i32 noundef 1)
          to label %_ZN6icu_7720BasicCalendarFactoryC2Ev.exit.i unwind label %37

_ZN6icu_7720BasicCalendarFactoryC2Ev.exit.i:      ; preds = %21
  store ptr getelementptr inbounds nuw inrange(-16, 72) (i8, ptr @_ZTVN6icu_7720BasicCalendarFactoryE, i64 16), ptr %19, align 8, !tbaa !15
  br label %22

22:                                               ; preds = %_ZN6icu_7720BasicCalendarFactoryC2Ev.exit.i, %18
  %23 = load ptr, ptr %12, align 8, !tbaa !15
  %24 = getelementptr inbounds nuw i8, ptr %23, i64 72
  %25 = load ptr, ptr %24, align 8
  %26 = tail call noundef ptr %25(ptr noundef nonnull align 8 dereferenceable(120) %12, ptr noundef %19, ptr noundef nonnull align 4 dereferenceable(4) %0)
  %27 = load i32, ptr %0, align 4, !tbaa !13
  %28 = icmp slt i32 %27, 1
  br i1 %28, label %_ZN6icu_77L19initCalendarServiceER10UErrorCode.exit, label %29

29:                                               ; preds = %22
  %30 = load ptr, ptr @_ZL8gService, align 8, !tbaa !36
  %31 = icmp eq ptr %30, null
  br i1 %31, label %36, label %32

32:                                               ; preds = %29
  %33 = load ptr, ptr %30, align 8, !tbaa !15
  %34 = getelementptr inbounds nuw i8, ptr %33, i64 8
  %35 = load ptr, ptr %34, align 8
  tail call void %35(ptr noundef nonnull align 8 dereferenceable(408) %30) #25
  %.pre.pre = load i32, ptr %0, align 4, !tbaa !13
  br label %36

36:                                               ; preds = %32, %29
  %.pre = phi i32 [ %.pre.pre, %32 ], [ %27, %29 ]
  store ptr null, ptr @_ZL8gService, align 8, !tbaa !36
  br label %_ZN6icu_77L19initCalendarServiceER10UErrorCode.exit

37:                                               ; preds = %21
  %38 = landingpad { ptr, i32 }
          cleanup
  br label %39

39:                                               ; preds = %37, %16
  %.sink.i = phi ptr [ %19, %37 ], [ %12, %16 ]
  %.pn.i = phi { ptr, i32 } [ %38, %37 ], [ %17, %16 ]
  tail call void @_ZN6icu_777UMemorydlEPv(ptr noundef nonnull %.sink.i) #25
  resume { ptr, i32 } %.pn.i

_ZN6icu_77L19initCalendarServiceER10UErrorCode.exit: ; preds = %8, %15, %22, %36
  %40 = phi i32 [ %9, %8 ], [ 7, %15 ], [ %27, %22 ], [ %.pre, %36 ]
  store i32 %40, ptr getelementptr inbounds nuw (i8, ptr @_ZL16gServiceInitOnce, i64 4), align 4, !tbaa !38
  tail call void @_ZN6icu_7721umtx_initImplPostInitERNS_9UInitOnceE(ptr noundef nonnull align 4 dereferenceable(8) @_ZL16gServiceInitOnce)
  br label %_ZN6icu_7713umtx_initOnceERNS_9UInitOnceEPFvR10UErrorCodeES3_.exit

41:                                               ; preds = %6, %4
  %42 = load i32, ptr getelementptr inbounds nuw (i8, ptr @_ZL16gServiceInitOnce, i64 4), align 4, !tbaa !38
  %43 = icmp slt i32 %42, 1
  br i1 %43, label %_ZN6icu_7713umtx_initOnceERNS_9UInitOnceEPFvR10UErrorCodeES3_.exit, label %44

44:                                               ; preds = %41
  store i32 %42, ptr %0, align 4, !tbaa !13
  br label %_ZN6icu_7713umtx_initOnceERNS_9UInitOnceEPFvR10UErrorCodeES3_.exit

_ZN6icu_7713umtx_initOnceERNS_9UInitOnceEPFvR10UErrorCodeES3_.exit: ; preds = %1, %_ZN6icu_77L19initCalendarServiceER10UErrorCode.exit, %41, %44
  %45 = load ptr, ptr @_ZL8gService, align 8, !tbaa !36
  ret ptr %45
}